target datalayout = "e-m:e-p270:32:32-p271:32:32-p272:64:64-i64:64-i128:128-f80:128-n8:16:32:64-S128"
target triple = "x86_64-pc-linux-gnu"

%"class.std::__cxx11::basic_string" = type { %"struct.std::__cxx11::basic_string<char>::_Alloc_hider", i64, %union.anon }
%"struct.std::__cxx11::basic_string<char>::_Alloc_hider" = type { ptr }
%union.anon = type { i64, [8 x i8] }
%"class.std::vector.211" = type { %"struct.std::_Vector_base.212" }
%"struct.std::_Vector_base.212" = type { %"struct.std::_Vector_base<std::__cxx11::basic_string<char>, std::allocator<std::__cxx11::basic_string<char>>>::_Vector_impl" }
%"struct.std::_Vector_base<std::__cxx11::basic_string<char>, std::allocator<std::__cxx11::basic_string<char>>>::_Vector_impl" = type { %"struct.std::_Vector_base<std::__cxx11::basic_string<char>, std::allocator<std::__cxx11::basic_string<char>>>::_Vector_impl_data" }
%"struct.std::_Vector_base<std::__cxx11::basic_string<char>, std::allocator<std::__cxx11::basic_string<char>>>::_Vector_impl_data" = type { ptr, ptr, ptr }
%class.cmCommonTargetGenerator = type { ptr, ptr, ptr, ptr, ptr, %"class.std::vector.211", i8, %"class.std::map.216" }
%"class.std::map.216" = type { %"class.std::_Rb_tree.217" }
%"class.std::_Rb_tree.217" = type { %"struct.std::_Rb_tree<std::__cxx11::basic_string<char>, std::pair<const std::__cxx11::basic_string<char>, cmCommonTargetGenerator::ByConfig>, std::_Select1st<std::pair<const std::__cxx11::basic_string<char>, cmCommonTargetGenerator::ByConfig>>, std::less<std::__cxx11::basic_string<char>>>::_Rb_tree_impl" }
%"struct.std::_Rb_tree<std::__cxx11::basic_string<char>, std::pair<const std::__cxx11::basic_string<char>, cmCommonTargetGenerator::ByConfig>, std::_Select1st<std::pair<const std::__cxx11::basic_string<char>, cmCommonTargetGenerator::ByConfig>>, std::less<std::__cxx11::basic_string<char>>>::_Rb_tree_impl" = type { %"struct.std::_Rb_tree_key_compare.10", %"struct.std::_Rb_tree_header" }
%"struct.std::_Rb_tree_key_compare.10" = type { %"struct.std::less.11" }
%"struct.std::less.11" = type { i8 }
%"struct.std::_Rb_tree_header" = type { %"struct.std::_Rb_tree_node_base", i64 }
%"struct.std::_Rb_tree_node_base" = type { i32, ptr, ptr, ptr }
%"class.std::allocator" = type { i8 }

@__dso_handle = external hidden global i8
@_ZZN22cmNinjaTargetGenerator17ForceResponseFileEvE12forceRspFileB5cxx11 = internal global %"class.std::__cxx11::basic_string" zeroinitializer, align 8
@_ZGVZN22cmNinjaTargetGenerator17ForceResponseFileEvE12forceRspFileB5cxx11 = internal global i64 0, align 8
@.str.200 = private unnamed_addr constant [32 x i8] c"CMAKE_NINJA_FORCE_RESPONSE_FILE\00", align 1

; Function Attrs: mustprogress nounwind uwtable
define linkonce_odr dso_local noundef ptr @_ZNK22cmNinjaTargetGenerator11GetMakefileEv(ptr noundef nonnull align 8 dereferenceable(240) %0) #5 comdat align 2 {
  %2 = alloca ptr, align 8
  store ptr %0, ptr %2, align 8
  %3 = load ptr, ptr %2, align 8
  %4 = getelementptr inbounds %class.cmCommonTargetGenerator, ptr %3, i32 0, i32 2
  %5 = load ptr, ptr %4, align 8
  ret ptr %5
}

; Function Attrs: mustprogress uwtable
define dso_local noundef zeroext i1 @_ZN22cmNinjaTargetGenerator17ForceResponseFileEv(ptr noundef nonnull align 8 dereferenceable(240) %0) #4 align 2 personality ptr @__gxx_personality_v0 {
  %2 = alloca ptr, align 8
  %3 = alloca %"class.std::allocator", align 1
  %4 = alloca ptr, align 8
  %5 = alloca i32, align 4
  store ptr %0, ptr %2, align 8
  %6 = load ptr, ptr %2, align 8
  %7 = load atomic i8, ptr @_ZGVZN22cmNinjaTargetGenerator17ForceResponseFileEvE12forceRspFileB5cxx11 acquire, align 8
  %8 = icmp eq i8 %7, 0
  br i1 %8, label %9, label %15, !prof !9

9:                                                ; preds = %1
  %10 = call i32 @__cxa_guard_acquire(ptr @_ZGVZN22cmNinjaTargetGenerator17ForceResponseFileEvE12forceRspFileB5cxx11) #3
  %11 = icmp ne i32 %10, 0
  br i1 %11, label %12, label %15

12:                                               ; preds = %9
  call void @_ZNSaIcEC1Ev(ptr noundef nonnull align 1 dereferenceable(1) %3) #3
  invoke void @_ZNSt7__cxx1112basic_stringIcSt11char_traitsIcESaIcEEC2IS3_EEPKcRKS3_(ptr noundef nonnull align 8 dereferenceable(32) @_ZZN22cmNinjaTargetGenerator17ForceResponseFileEvE12forceRspFileB5cxx11, ptr noundef @.str.200, ptr noundef nonnull align 1 dereferenceable(1) %3)
          to label %13 unwind label %22

13:                                               ; preds = %12
  call void @_ZNSaIcED1Ev(ptr noundef nonnull align 1 dereferenceable(1) %3) #3
  %14 = call i32 @__cxa_atexit(ptr @_ZNSt7__cxx1112basic_stringIcSt11char_traitsIcESaIcEED1Ev, ptr @_ZZN22cmNinjaTargetGenerator17ForceResponseFileEvE12forceRspFileB5cxx11, ptr @__dso_handle) #3
  call void @__cxa_guard_release(ptr @_ZGVZN22cmNinjaTargetGenerator17ForceResponseFileEvE12forceRspFileB5cxx11) #3
  br label %15

15:                                               ; preds = %13, %9, %1
  %16 = call noundef ptr @_ZNK22cmNinjaTargetGenerator11GetMakefileEv(ptr noundef nonnull align 8 dereferenceable(240) %6)
  %17 = call noundef zeroext i1 @_ZNK10cmMakefile15IsDefinitionSetERKNSt7__cxx1112basic_stringIcSt11char_traitsIcESaIcEEE(ptr noundef nonnull align 8 dereferenceable(3520) %16, ptr noundef nonnull align 8 dereferenceable(32) @_ZZN22cmNinjaTargetGenerator17ForceResponseFileEvE12forceRspFileB5cxx11)
  br i1 %17, label %20, label %18

18:                                               ; preds = %15
  %19 = call noundef zeroext i1 @_ZN5cmsys11SystemTools6HasEnvERKNSt7__cxx1112basic_stringIcSt11char_traitsIcESaIcEEE(ptr noundef nonnull align 8 dereferenceable(32) @_ZZN22cmNinjaTargetGenerator17ForceResponseFileEvE12forceRspFileB5cxx11)
  br label %20

20:                                               ; preds = %18, %15
  %21 = phi i1 [ true, %15 ], [ %19, %18 ]
  ret i1 %21

22:                                               ; preds = %12
  %23 = landingpad { ptr, i32 }
          cleanup
  %24 = extractvalue { ptr, i32 } %23, 0
  store ptr %24, ptr %4, align 8
  %25 = extractvalue { ptr, i32 } %23, 1
  store i32 %25, ptr %5, align 4
  call void @_ZNSaIcED1Ev(ptr noundef nonnull align 1 dereferenceable(1) %3) #3
  call void @__cxa_guard_abort(ptr @_ZGVZN22cmNinjaTargetGenerator17ForceResponseFileEvE12forceRspFileB5cxx11) #3
  br label %26

26:                                               ; preds = %22
  %27 = load ptr, ptr %4, align 8
  %28 = load i32, ptr %5, align 4
  %29 = insertvalue { ptr, i32 } poison, ptr %27, 0
  %30 = insertvalue { ptr, i32 } %29, i32 %28, 1
  resume { ptr, i32 } %30
}