; Function Attrs: mustprogress uwtable
define dso_local noundef zeroext i1 @_ZN22cmNinjaTargetGenerator17ForceResponseFileEv(ptr nocapture noundef nonnull readonly align 8 dereferenceable(240) %0) local_unnamed_addr #3 align 2 personality ptr @__gxx_personality_v0 {
  %2 = alloca %"class.std::allocator", align 1
  %3 = load atomic i8, ptr @_ZGVZN22cmNinjaTargetGenerator17ForceResponseFileEvE12forceRspFileB5cxx11 acquire, align 8
  %4 = icmp eq i8 %3, 0
  br i1 %4, label %5, label %10, !prof !730

5:                                                ; preds = %1
  %6 = tail call i32 @__cxa_guard_acquire(ptr nonnull @_ZGVZN22cmNinjaTargetGenerator17ForceResponseFileEvE12forceRspFileB5cxx11) #24
  %.not = icmp eq i32 %6, 0
  br i1 %.not, label %10, label %7

7:                                                ; preds = %5
  call void @_ZNSaIcEC1Ev(ptr noundef nonnull align 1 dereferenceable(1) %2) #24
  invoke void @_ZNSt7__cxx1112basic_stringIcSt11char_traitsIcESaIcEEC2IS3_EEPKcRKS3_(ptr noundef nonnull align 8 dereferenceable(32) @_ZZN22cmNinjaTargetGenerator17ForceResponseFileEvE12forceRspFileB5cxx11, ptr noundef nonnull @.str.200, ptr noundef nonnull align 1 dereferenceable(1) %2)
          to label %8 unwind label %18

8:                                                ; preds = %7
  call void @_ZNSaIcED1Ev(ptr noundef nonnull align 1 dereferenceable(1) %2) #24
  %9 = call i32 @__cxa_atexit(ptr nonnull @_ZNSt7__cxx1112basic_stringIcSt11char_traitsIcESaIcEED1Ev, ptr nonnull @_ZZN22cmNinjaTargetGenerator17ForceResponseFileEvE12forceRspFileB5cxx11, ptr nonnull @__dso_handle) #24
  call void @__cxa_guard_release(ptr nonnull @_ZGVZN22cmNinjaTargetGenerator17ForceResponseFileEvE12forceRspFileB5cxx11) #24
  br label %10

10:                                               ; preds = %8, %5, %1
  %11 = getelementptr inbounds i8, ptr %0, i64 16
  %12 = load ptr, ptr %11, align 8
  %13 = call noundef zeroext i1 @_ZNK10cmMakefile15IsDefinitionSetERKNSt7__cxx1112basic_stringIcSt11char_traitsIcESaIcEEE(ptr noundef nonnull align 8 dereferenceable(3520) %12, ptr noundef nonnull align 8 dereferenceable(32) @_ZZN22cmNinjaTargetGenerator17ForceResponseFileEvE12forceRspFileB5cxx11)
  br i1 %13, label %16, label %14

14:                                               ; preds = %10
  %15 = call noundef zeroext i1 @_ZN5cmsys11SystemTools6HasEnvERKNSt7__cxx1112basic_stringIcSt11char_traitsIcESaIcEEE(ptr noundef nonnull align 8 dereferenceable(32) @_ZZN22cmNinjaTargetGenerator17ForceResponseFileEvE12forceRspFileB5cxx11)
  br label %16

16:                                               ; preds = %14, %10
  %17 = phi i1 [ true, %10 ], [ %15, %14 ]
  ret i1 %17

18:                                               ; preds = %7
  %19 = landingpad { ptr, i32 }
          cleanup
  call void @_ZNSaIcED1Ev(ptr noundef nonnull align 1 dereferenceable(1) %2) #24
  call void @__cxa_guard_abort(ptr nonnull @_ZGVZN22cmNinjaTargetGenerator17ForceResponseFileEvE12forceRspFileB5cxx11) #24
  resume { ptr, i32 } %19
}